Certificate:
    Data:
        Version: 3 (0x2)
        Serial Number: 1 (0x1)
        Signature Algorithm: sha256WithRSAEncryption
        Issuer: C=AU, ST=Some-State, O=Internet Widgits Pty Ltd, CN=CA
        Validity
            Not Before: Feb 25 12:16:43 2020 GMT
            Not After : Feb 24 12:16:43 2021 GMT
        Subject: C=AU, ST=Some-State, O=Internet Widgits Pty Ltd, CN=user1
        Subject Public Key Info:
            Public Key Algorithm: rsaEncryption
                RSA Public-Key: (2048 bit)
                Modulus:
                    00:b4:ab:f1:25:70:47:3d:c1:a6:8e:d0:44:2d:f5:
                    71:5e:4e:90:a1:92:40:e6:73:1e:59:59:a1:b2:39:
                    45:d1:57:ac:8f:00:cd:55:29:1c:e0:da:ae:ff:af:
                    a1:00:d9:37:c0:f0:3e:95:5c:5f:d6:e3:0f:5a:88:
                    7e:18:90:93:36:46:e8:46:32:ed:1d:c3:8c:b1:9d:
                    bd:1f:9f:9a:ce:9e:cd:b3:46:0b:b8:6a:60:c7:f7:
                    89:23:18:b6:06:44:dc:3d:71:91:c8:51:87:7d:53:
                    a3:02:4b:b9:c2:83:d0:a4:f7:06:9a:89:74:93:65:
                    6d:b4:88:3e:79:fa:57:7e:f5:0e:0a:25:ed:1c:dc:
                    2e:94:ed:88:3b:47:90:3b:0c:79:15:64:0d:c7:7b:
                    66:01:22:ea:03:a9:81:95:8b:21:43:44:32:4c:8d:
                    0b:d9:68:24:b1:34:11:2a:b9:04:f1:df:29:03:33:
                    2b:96:ab:50:41:54:78:f4:38:6c:71:2a:42:6a:0d:
                    61:5a:5c:dd:00:d4:45:5a:e2:ea:63:f5:46:30:1c:
                    42:cf:3a:f7:4f:c0:c9:5e:fb:dd:d2:fc:e3:1b:a3:
                    f6:56:4a:11:88:25:95:89:78:36:74:ba:6b:22:dd:
                    77:a3:a6:4e:47:17:5f:0f:ec:47:0b:52:ec:c7:56:
                    f7:cf
                Exponent: 65537 (0x10001)
        X509v3 extensions:
            X509v3 Basic Constraints: 
                CA:FALSE
            Netscape Comment: 
                OpenSSL Generated Certificate
            X509v3 Subject Key Identifier: 
                DB:6D:8F:16:54:E6:8C:A0:42:33:A5:40:9E:6C:4D:55:8D:C2:6B:9F
            X509v3 Authority Key Identifier: 
                keyid:C0:64:1C:B9:A5:8E:94:D5:47:33:6E:9A:60:A1:96:E5:A4:E5:B4:DA

    Signature Algorithm: sha256WithRSAEncryption
         8b:1f:93:fd:ad:18:0d:cc:4d:2d:ba:dc:cd:e1:1b:ce:47:d2:
         c6:54:09:3e:31:f2:c8:3c:12:08:57:36:1a:ad:95:23:af:27:
         33:fd:5a:77:20:c1:e0:3b:13:b7:a3:f8:01:9c:65:7d:35:6f:
         46:84:6b:09:98:59:7a:da:72:09:e5:c2:58:03:ac:85:07:43:
         65:17:ae:d1:d4:68:84:3a:04:87:a6:5e:76:4a:63:e8:10:f8:
         01:61:d4:10:1e:28:0a:1b:dd:21:e5:fa:9d:89:74:c6:8f:37:
         1c:68:17:f3:3e:ff:ee:32:94:95:4a:09:c7:99:dd:c3:85:1c:
         5f:01:c8:32:9d:ec:84:45:e4:6a:50:4f:73:87:fc:10:c1:f2:
         19:00:57:96:b2:de:ef:63:3b:2f:b7:20:00:90:7a:37:84:4a:
         32:52:f5:bf:ff:be:47:f5:f7:82:1b:10:5e:a2:b7:68:cb:05:
         6c:7b:f6:5b:72:62:e1:aa:a9:8a:92:27:7b:50:26:3d:6b:b0:
         4b:c2:6c:66:0e:11:0b:70:6a:cd:2d:ff:5a:0f:56:37:e6:e5:
         94:ce:bd:d8:01:05:22:d2:47:ad:09:b8:20:2a:c6:ca:2a:30:
         81:5e:2f:9d:0b:0d:dd:6a:f5:aa:e2:1c:24:9b:e8:24:a3:e6:
         db:f4:b6:d4
-----BEGIN CERTIFICATE-----
MIIDnTCCAoWgAwIBAgIBATANBgkqhkiG9w0BAQsFADBSMQswCQYDVQQGEwJBVTET
MBEGA1UECAwKU29tZS1TdGF0ZTEhMB8GA1UECgwYSW50ZXJuZXQgV2lkZ2l0cyBQ
dHkgTHRkMQswCQYDVQQDDAJDQTAeFw0yMDAyMjUxMjE2NDNaFw0yMTAyMjQxMjE2
NDNaMFUxCzAJBgNVBAYTAkFVMRMwEQYDVQQIDApTb21lLVN0YXRlMSEwHwYDVQQK
DBhJbnRlcm5ldCBXaWRnaXRzIFB0eSBMdGQxDjAMBgNVBAMMBXVzZXIxMIIBIjAN
BgkqhkiG9w0BAQEFAAOCAQ8AMIIBCgKCAQEAtKvxJXBHPcGmjtBELfVxXk6QoZJA
5nMeWVmhsjlF0VesjwDNVSkc4Nqu/6+hANk3wPA+lVxf1uMPWoh+GJCTNkboRjLt
HcOMsZ29H5+azp7Ns0YLuGpgx/eJIxi2BkTcPXGRyFGHfVOjAku5woPQpPcGmol0
k2VttIg+efpXfvUOCiXtHNwulO2IO0eQOwx5FWQNx3tmASLqA6mBlYshQ0QyTI0L
2WgksTQRKrkE8d8pAzMrlqtQQVR49DhscSpCag1hWlzdANRFWuLqY/VGMBxCzzr3
T8DJXvvd0vzjG6P2VkoRiCWViXg2dLprIt13o6ZORxdfD+xHC1Lsx1b3zwIDAQAB
o3sweTAJBgNVHRMEAjAAMCwGCWCGSAGG+EIBDQQfFh1PcGVuU1NMIEdlbmVyYXRl
ZCBDZXJ0aWZpY2F0ZTAdBgNVHQ4EFgQU222PFlTmjKBCM6VAnmxNVY3Ca58wHwYD
VR0jBBgwFoAUwGQcuaWOlNVHM26aYKGW5aTltNowDQYJKoZIhvcNAQELBQADggEB
AIsfk/2tGA3MTS263M3hG85H0sZUCT4x8sg8EghXNhqtlSOvJzP9WncgweA7E7ej
+AGcZX01b0aEawmYWXracgnlwlgDrIUHQ2UXrtHUaIQ6BIemXnZKY+gQ+AFh1BAe
KAob3SHl+p2JdMaPNxxoF/M+/+4ylJVKCceZ3cOFHF8ByDKd7IRF5GpQT3OH/BDB
8hkAV5ay3u9jOy+3IACQejeESjJS9b//vkf194IbEF6it2jLBWx79ltyYuGqqYqS
J3tQJj1rsEvCbGYOEQtwas0t/1oPVjfm5ZTOvdgBBSLSR60JuCAqxsoqMIFeL50L
Dd1q9ariHCSb6CSj5tv0ttQ=
-----END CERTIFICATE-----
