Certificate:
    Data:
        Version: 3 (0x2)
        Serial Number: 2 (0x2)
        Signature Algorithm: sha256WithRSAEncryption
        Issuer: C=AU, ST=Some-State, O=Internet Widgits Pty Ltd, CN=CA
        Validity
            Not Before: Feb 25 12:16:54 2020 GMT
            Not After : Feb 24 12:16:54 2021 GMT
        Subject: C=AU, ST=Some-State, O=Internet Widgits Pty Ltd, CN=user2
        Subject Public Key Info:
            Public Key Algorithm: rsaEncryption
                RSA Public-Key: (2048 bit)
                Modulus:
                    00:d3:3e:ed:e1:c2:87:f6:f9:af:18:25:18:6a:c7:
                    2a:3e:13:61:40:6d:ee:ee:68:95:14:14:25:2a:b8:
                    04:67:4e:d9:bb:33:01:f9:de:df:1c:58:5f:e1:95:
                    d1:2f:fd:51:90:08:94:46:4e:6c:8b:ed:5d:c2:2f:
                    d9:ef:ac:76:33:15:67:39:e4:19:33:a0:fe:87:01:
                    0a:67:76:ed:39:b7:6c:a6:b6:24:f1:f1:71:d0:36:
                    09:5b:2f:8b:2b:af:7b:29:97:eb:25:6c:4c:13:50:
                    81:43:73:26:37:3f:9f:54:02:86:70:bf:64:55:94:
                    5c:c6:da:d0:68:f4:2c:21:cb:77:e4:dc:aa:74:35:
                    0b:aa:33:af:92:af:98:1a:06:1f:e9:03:d6:bc:1d:
                    81:be:73:74:a3:30:0a:8a:b9:83:aa:c7:4d:a4:f4:
                    a3:fa:63:0d:30:d0:0b:9c:0c:83:ed:7b:8d:e9:0f:
                    e2:5f:f4:55:06:0b:a2:88:14:e6:16:99:06:61:1b:
                    c1:27:f3:b1:0f:c2:9d:30:23:9f:e9:71:96:00:99:
                    9b:aa:a9:da:6d:d8:da:f7:5a:29:cc:33:38:b4:ff:
                    75:ef:0c:5f:d5:50:15:37:4d:33:c4:df:18:b6:56:
                    e7:e2:4c:ff:a1:3d:e0:9d:8c:d1:3e:7c:67:fa:cf:
                    de:cb
                Exponent: 65537 (0x10001)
        X509v3 extensions:
            X509v3 Basic Constraints: 
                CA:FALSE
            Netscape Comment: 
                OpenSSL Generated Certificate
            X509v3 Subject Key Identifier: 
                DA:3A:AC:1A:36:CC:19:DA:F5:F1:E5:F3:F8:61:DF:F9:9D:AC:7B:AC
            X509v3 Authority Key Identifier: 
                keyid:C0:64:1C:B9:A5:8E:94:D5:47:33:6E:9A:60:A1:96:E5:A4:E5:B4:DA

    Signature Algorithm: sha256WithRSAEncryption
         7b:5b:50:a7:15:e1:68:9a:4b:6c:65:8a:06:bc:0a:53:bc:af:
         96:fa:d7:28:0f:24:55:7c:f4:46:4d:2e:ea:a0:5d:f4:f9:20:
         a0:25:66:63:35:04:5c:8a:bf:ba:36:61:96:cf:fa:4d:16:94:
         e1:99:03:94:5c:4b:5e:73:3a:9d:02:09:c3:80:03:0d:dc:aa:
         ca:8b:ce:07:41:d4:34:62:ea:32:a0:8f:ba:1d:a5:75:94:43:
         08:19:00:74:33:fe:63:cf:57:f8:ed:cd:70:34:44:dd:ef:49:
         c4:4f:bc:b3:e2:e1:d8:85:ac:76:5a:44:bc:f0:96:0b:6a:3b:
         50:b6:77:1a:d2:ea:f4:e7:4e:9d:47:54:3b:1c:d1:f8:15:a0:
         90:4e:b7:80:d1:17:74:fd:73:b4:6c:ec:2d:40:af:74:ea:b9:
         46:c0:7a:44:9f:06:ed:db:ed:21:9c:7f:59:0b:38:24:48:21:
         a7:54:2f:59:d4:8a:3f:fc:07:70:38:17:b6:4b:fe:d0:22:65:
         a8:b5:0b:21:36:e7:79:38:dc:c6:a0:b9:e4:a6:df:b8:4d:99:
         2d:4d:e4:41:fa:dd:81:8e:a1:41:8d:41:8e:e1:81:a3:90:49:
         fe:29:9b:3b:41:23:1e:36:13:b1:97:3f:c4:02:26:30:56:7c:
         d3:52:de:43
-----BEGIN CERTIFICATE-----
MIIDnTCCAoWgAwIBAgIBAjANBgkqhkiG9w0BAQsFADBSMQswCQYDVQQGEwJBVTET
MBEGA1UECAwKU29tZS1TdGF0ZTEhMB8GA1UECgwYSW50ZXJuZXQgV2lkZ2l0cyBQ
dHkgTHRkMQswCQYDVQQDDAJDQTAeFw0yMDAyMjUxMjE2NTRaFw0yMTAyMjQxMjE2
NTRaMFUxCzAJBgNVBAYTAkFVMRMwEQYDVQQIDApTb21lLVN0YXRlMSEwHwYDVQQK
DBhJbnRlcm5ldCBXaWRnaXRzIFB0eSBMdGQxDjAMBgNVBAMMBXVzZXIyMIIBIjAN
BgkqhkiG9w0BAQEFAAOCAQ8AMIIBCgKCAQEA0z7t4cKH9vmvGCUYascqPhNhQG3u
7miVFBQlKrgEZ07ZuzMB+d7fHFhf4ZXRL/1RkAiURk5si+1dwi/Z76x2MxVnOeQZ
M6D+hwEKZ3btObdsprYk8fFx0DYJWy+LK697KZfrJWxME1CBQ3MmNz+fVAKGcL9k
VZRcxtrQaPQsIct35NyqdDULqjOvkq+YGgYf6QPWvB2BvnN0ozAKirmDqsdNpPSj
+mMNMNALnAyD7XuN6Q/iX/RVBguiiBTmFpkGYRvBJ/OxD8KdMCOf6XGWAJmbqqna
bdja91opzDM4tP917wxf1VAVN00zxN8Ytlbn4kz/oT3gnYzRPnxn+s/eywIDAQAB
o3sweTAJBgNVHRMEAjAAMCwGCWCGSAGG+EIBDQQfFh1PcGVuU1NMIEdlbmVyYXRl
ZCBDZXJ0aWZpY2F0ZTAdBgNVHQ4EFgQU2jqsGjbMGdr18eXz+GHf+Z2se6wwHwYD
VR0jBBgwFoAUwGQcuaWOlNVHM26aYKGW5aTltNowDQYJKoZIhvcNAQELBQADggEB
AHtbUKcV4WiaS2xliga8ClO8r5b61ygPJFV89EZNLuqgXfT5IKAlZmM1BFyKv7o2
YZbP+k0WlOGZA5RcS15zOp0CCcOAAw3cqsqLzgdB1DRi6jKgj7odpXWUQwgZAHQz
/mPPV/jtzXA0RN3vScRPvLPi4diFrHZaRLzwlgtqO1C2dxrS6vTnTp1HVDsc0fgV
oJBOt4DRF3T9c7Rs7C1Ar3TquUbAekSfBu3b7SGcf1kLOCRIIadUL1nUij/8B3A4
F7ZL/tAiZai1CyE253k43MagueSm37hNmS1N5EH63YGOoUGNQY7hgaOQSf4pmztB
Ix42E7GXP8QCJjBWfNNS3kM=
-----END CERTIFICATE-----
